target datalayout = "e-m:e-p270:32:32-p271:32:32-p272:64:64-i64:64-i128:128-f80:128-n8:16:32:64-S128"
target triple = "x86_64-pc-linux-gnu"

%"class.llvm::StringRef" = type { ptr, i64 }
%"class.llvm::SmallVectorBase" = type { ptr, i32, i32 }
%"struct.llvm::omp::GV" = type { i32, i32, i32, i32, i32, i32, i32 }
%"class.llvm::OpenMPIRBuilderConfig" = type { %"class.std::optional", %"class.std::optional", %"class.std::optional", %"class.std::optional", %"class.std::optional.29", %"class.std::optional.29", %"class.std::optional.35", %"class.llvm::SmallVector.43", i64 }
%"class.std::optional" = type { %"struct.std::_Optional_base" }
%"struct.std::_Optional_base" = type { %"struct.std::_Optional_payload" }
%"struct.std::_Optional_payload" = type { %"struct.std::_Optional_payload_base" }
%"struct.std::_Optional_payload_base" = type { %"union.std::_Optional_payload_base<bool>::_Storage", i8 }
%"union.std::_Optional_payload_base<bool>::_Storage" = type { %"struct.std::_Optional_payload_base<bool>::_Empty_byte" }
%"struct.std::_Optional_payload_base<bool>::_Empty_byte" = type { i8 }
%"class.std::optional.29" = type { %"struct.std::_Optional_base.30" }
%"struct.std::_Optional_base.30" = type { %"struct.std::_Optional_payload.32" }
%"struct.std::_Optional_payload.32" = type { %"struct.std::_Optional_payload_base.base", [7 x i8] }
%"struct.std::_Optional_payload_base.base" = type <{ %"union.std::_Optional_payload_base<llvm::StringRef>::_Storage", i8 }>
%"union.std::_Optional_payload_base<llvm::StringRef>::_Storage" = type { %"class.llvm::StringRef" }
%"class.std::optional.35" = type { %"struct.std::_Optional_base.36" }
%"struct.std::_Optional_base.36" = type { %"struct.std::_Optional_payload.38" }
%"struct.std::_Optional_payload.38" = type { %"struct.std::_Optional_payload_base.base.40", [3 x i8] }
%"struct.std::_Optional_payload_base.base.40" = type <{ %"union.std::_Optional_payload_base<llvm::omp::GV>::_Storage", i8 }>
%"union.std::_Optional_payload_base<llvm::omp::GV>::_Storage" = type { %"struct.llvm::omp::GV" }
%"class.llvm::SmallVector.43" = type { %"class.llvm::SmallVectorImpl.44", %"struct.llvm::SmallVectorStorage.47" }
%"class.llvm::SmallVectorImpl.44" = type { %"class.llvm::SmallVectorTemplateBase.45" }
%"class.llvm::SmallVectorTemplateBase.45" = type { %"class.llvm::SmallVectorTemplateCommon.46" }
%"class.llvm::SmallVectorTemplateCommon.46" = type { %"class.llvm::SmallVectorBase" }
%"struct.llvm::SmallVectorStorage.47" = type { [56 x i8] }

; Function Attrs: mustprogress nounwind uwtable
define linkonce_odr hidden noundef i64 @_ZN4llvm12NextPowerOf2Em(i64 noundef %0) #1 comdat {
  %2 = alloca i64, align 8
  store i64 %0, ptr %2, align 8
  %3 = load i64, ptr %2, align 8
  %4 = lshr i64 %3, 1
  %5 = load i64, ptr %2, align 8
  %6 = or i64 %5, %4
  store i64 %6, ptr %2, align 8
  %7 = load i64, ptr %2, align 8
  %8 = lshr i64 %7, 2
  %9 = load i64, ptr %2, align 8
  %10 = or i64 %9, %8
  store i64 %10, ptr %2, align 8
  %11 = load i64, ptr %2, align 8
  %12 = lshr i64 %11, 4
  %13 = load i64, ptr %2, align 8
  %14 = or i64 %13, %12
  store i64 %14, ptr %2, align 8
  %15 = load i64, ptr %2, align 8
  %16 = lshr i64 %15, 8
  %17 = load i64, ptr %2, align 8
  %18 = or i64 %17, %16
  store i64 %18, ptr %2, align 8
  %19 = load i64, ptr %2, align 8
  %20 = lshr i64 %19, 16
  %21 = load i64, ptr %2, align 8
  %22 = or i64 %21, %20
  store i64 %22, ptr %2, align 8
  %23 = load i64, ptr %2, align 8
  %24 = lshr i64 %23, 32
  %25 = load i64, ptr %2, align 8
  %26 = or i64 %25, %24
  store i64 %26, ptr %2, align 8
  %27 = load i64, ptr %2, align 8
  %28 = add i64 %27, 1
  ret i64 %28
}

; Function Attrs: mustprogress nounwind uwtable
define internal noundef i32 @_ZN4llvm13to_underlyingIN12_GLOBAL__N_132OpenMPOffloadingRequiresDirFlagsEEENSt15underlying_typeIT_E4typeES4_(i32 noundef %0) #1 {
  %2 = alloca i32, align 4
  store i32 %0, ptr %2, align 4
  %3 = load i32, ptr %2, align 4
  ret i32 %3
}

; Function Attrs: mustprogress nounwind uwtable
define internal noundef i32 @_ZN4llvm17BitmaskEnumDetail4MaskIN12_GLOBAL__N_132OpenMPOffloadingRequiresDirFlagsEEENSt15underlying_typeIT_E4typeEv() #1 {
  %1 = call noundef i64 @_ZN4llvm12NextPowerOf2Em(i64 noundef 16)
  %2 = sub i64 %1, 1
  %3 = trunc i64 %2 to i32
  ret i32 %3
}

; Function Attrs: mustprogress nounwind uwtable
define internal noundef i32 @_ZN4llvm17BitmaskEnumDetail10UnderlyingIN12_GLOBAL__N_132OpenMPOffloadingRequiresDirFlagsEEENSt15underlying_typeIT_E4typeES5_(i32 noundef %0) #1 {
  %2 = alloca i32, align 4
  %3 = alloca i32, align 4
  store i32 %0, ptr %2, align 4
  %4 = load i32, ptr %2, align 4
  %5 = call noundef i32 @_ZN4llvm13to_underlyingIN12_GLOBAL__N_132OpenMPOffloadingRequiresDirFlagsEEENSt15underlying_typeIT_E4typeES4_(i32 noundef %4)
  store i32 %5, ptr %3, align 4
  %6 = load i32, ptr %3, align 4
  ret i32 %6
}

; Function Attrs: mustprogress nounwind uwtable
define internal noundef i32 @_ZN4llvm17BitmaskEnumDetailcoIN12_GLOBAL__N_132OpenMPOffloadingRequiresDirFlagsEvEET_S4_(i32 noundef %0) #1 {
  %2 = alloca i32, align 4
  store i32 %0, ptr %2, align 4
  %3 = load i32, ptr %2, align 4
  %4 = call noundef i32 @_ZN4llvm17BitmaskEnumDetail10UnderlyingIN12_GLOBAL__N_132OpenMPOffloadingRequiresDirFlagsEEENSt15underlying_typeIT_E4typeES5_(i32 noundef %3)
  %5 = xor i32 %4, -1
  %6 = call noundef i32 @_ZN4llvm17BitmaskEnumDetail4MaskIN12_GLOBAL__N_132OpenMPOffloadingRequiresDirFlagsEEENSt15underlying_typeIT_E4typeEv()
  %7 = and i32 %5, %6
  ret i32 %7
}

; Function Attrs: mustprogress nounwind uwtable
define dso_local void @_ZN4llvm21OpenMPIRBuilderConfig28setHasRequiresUnifiedAddressEb(ptr noundef nonnull align 8 dereferenceable(168) %0, i1 noundef zeroext %1) #1 align 2 {
  %3 = alloca ptr, align 8
  %4 = alloca i8, align 1
  store ptr %0, ptr %3, align 8
  %5 = zext i1 %1 to i8
  store i8 %5, ptr %4, align 1
  %6 = load ptr, ptr %3, align 8
  %7 = load i8, ptr %4, align 1
  %8 = trunc i8 %7 to i1
  br i1 %8, label %9, label %13

9:                                                ; preds = %2
  %10 = getelementptr inbounds nuw %"class.llvm::OpenMPIRBuilderConfig", ptr %6, i32 0, i32 8
  %11 = load i64, ptr %10, align 8
  %12 = or i64 %11, 4
  store i64 %12, ptr %10, align 8
  br label %19

13:                                               ; preds = %2
  %14 = call noundef i32 @_ZN4llvm17BitmaskEnumDetailcoIN12_GLOBAL__N_132OpenMPOffloadingRequiresDirFlagsEvEET_S4_(i32 noundef 4)
  %15 = zext i32 %14 to i64
  %16 = getelementptr inbounds nuw %"class.llvm::OpenMPIRBuilderConfig", ptr %6, i32 0, i32 8
  %17 = load i64, ptr %16, align 8
  %18 = and i64 %17, %15
  store i64 %18, ptr %16, align 8
  br label %19

19:                                               ; preds = %13, %9
  ret void
}